; Function Attrs: mustprogress uwtable
define void @_ZN7openvdb5v11_02io19DelayedLoadMetadata20resizeCompressedSizeEm(ptr noundef nonnull align 8 dereferenceable(56) %this, i64 noundef %size) local_unnamed_addr #3 align 2 personality ptr @__gxx_personality_v0 {
entry:
  %mCompressedSize = getelementptr inbounds i8, ptr %this, i64 32
  %_M_finish.i.i = getelementptr inbounds i8, ptr %this, i64 40
  %0 = load ptr, ptr %_M_finish.i.i, align 8
  %1 = load ptr, ptr %mCompressedSize, align 8
  %sub.ptr.lhs.cast.i.i = ptrtoint ptr %0 to i64
  %sub.ptr.rhs.cast.i.i = ptrtoint ptr %1 to i64
  %sub.ptr.sub.i.i = sub i64 %sub.ptr.lhs.cast.i.i, %sub.ptr.rhs.cast.i.i
  %sub.ptr.div.i.i = ashr exact i64 %sub.ptr.sub.i.i, 3
  %cmp.i = icmp ult i64 %sub.ptr.div.i.i, %size
  br i1 %cmp.i, label %if.then.i, label %if.else.i

if.then.i:                                        ; preds = %entry
  %sub.i = sub i64 %size, %sub.ptr.div.i.i
  tail call void @_ZNSt6vectorIlSaIlEE17_M_default_appendEm(ptr noundef nonnull align 8 dereferenceable(24) %mCompressedSize, i64 noundef %sub.i)
  br label %_ZNSt6vectorIlSaIlEE6resizeEm.exit

if.else.i:                                        ; preds = %entry
  %cmp4.i = icmp ugt i64 %sub.ptr.div.i.i, %size
  br i1 %cmp4.i, label %if.then5.i, label %_ZNSt6vectorIlSaIlEE6resizeEm.exit

if.then5.i:                                       ; preds = %if.else.i
  %add.ptr.i = getelementptr inbounds i64, ptr %1, i64 %size
  %tobool.not.i.i = icmp eq ptr %0, %add.ptr.i
  br i1 %tobool.not.i.i, label %_ZNSt6vectorIlSaIlEE6resizeEm.exit, label %invoke.cont.i.i

invoke.cont.i.i:                                  ; preds = %if.then5.i
  store ptr %add.ptr.i, ptr %_M_finish.i.i, align 8
  br label %_ZNSt6vectorIlSaIlEE6resizeEm.exit

_ZNSt6vectorIlSaIlEE6resizeEm.exit:               ; preds = %if.then.i, %if.else.i, %if.then5.i, %invoke.cont.i.i
  ret void
}